target datalayout = "e-m:e-p270:32:32-p271:32:32-p272:64:64-i64:64-i128:128-f80:128-n8:16:32:64-S128"
target triple = "x86_64-pc-linux-gnu"

%"class.std::vector.45" = type { %"struct.std::_Vector_base.46" }
%"struct.std::_Vector_base.46" = type { %"struct.std::_Vector_base<std::__cxx11::basic_string<char>, std::allocator<std::__cxx11::basic_string<char>>>::_Vector_impl" }
%"struct.std::_Vector_base<std::__cxx11::basic_string<char>, std::allocator<std::__cxx11::basic_string<char>>>::_Vector_impl" = type { %"struct.std::_Vector_base<std::__cxx11::basic_string<char>, std::allocator<std::__cxx11::basic_string<char>>>::_Vector_impl_data" }
%"struct.std::_Vector_base<std::__cxx11::basic_string<char>, std::allocator<std::__cxx11::basic_string<char>>>::_Vector_impl_data" = type { ptr, ptr, ptr }
%"class.pxrInternal_v0_24__pxrReserved__::(anonymous namespace)::_DispatchingResolver" = type { %"class.pxrInternal_v0_24__pxrReserved__::ArResolver", %"class.std::shared_ptr", %"class.std::unordered_map", i64, %"class.std::vector.10", %"class.tbb::detail::d1::enumerable_thread_specific", %"class.pxrInternal_v0_24__pxrReserved__::ArThreadLocalScopedCache" }
%"class.pxrInternal_v0_24__pxrReserved__::ArResolver" = type { ptr }
%"class.std::shared_ptr" = type { %"class.std::__shared_ptr" }
%"class.std::__shared_ptr" = type { ptr, %"class.std::__shared_count" }
%"class.std::__shared_count" = type { ptr }
%"class.std::unordered_map" = type { %"class.std::_Hashtable" }
%"class.std::_Hashtable" = type { ptr, i64, %"struct.std::__detail::_Hash_node_base", i64, %"struct.std::__detail::_Prime_rehash_policy", ptr }
%"struct.std::__detail::_Hash_node_base" = type { ptr }
%"struct.std::__detail::_Prime_rehash_policy" = type { float, i64 }
%"class.std::vector.10" = type { %"struct.std::_Vector_base.11" }
%"struct.std::_Vector_base.11" = type { %"struct.std::_Vector_base<std::shared_ptr<pxrInternal_v0_24__pxrReserved__::(anonymous namespace)::_DispatchingResolver::_PackageResolver>, std::allocator<std::shared_ptr<pxrInternal_v0_24__pxrReserved__::(anonymous namespace)::_DispatchingResolver::_PackageResolver>>>::_Vector_impl" }
%"struct.std::_Vector_base<std::shared_ptr<pxrInternal_v0_24__pxrReserved__::(anonymous namespace)::_DispatchingResolver::_PackageResolver>, std::allocator<std::shared_ptr<pxrInternal_v0_24__pxrReserved__::(anonymous namespace)::_DispatchingResolver::_PackageResolver>>>::_Vector_impl" = type { %"struct.std::_Vector_base<std::shared_ptr<pxrInternal_v0_24__pxrReserved__::(anonymous namespace)::_DispatchingResolver::_PackageResolver>, std::allocator<std::shared_ptr<pxrInternal_v0_24__pxrReserved__::(anonymous namespace)::_DispatchingResolver::_PackageResolver>>>::_Vector_impl_data" }
%"struct.std::_Vector_base<std::shared_ptr<pxrInternal_v0_24__pxrReserved__::(anonymous namespace)::_DispatchingResolver::_PackageResolver>, std::allocator<std::shared_ptr<pxrInternal_v0_24__pxrReserved__::(anonymous namespace)::_DispatchingResolver::_PackageResolver>>>::_Vector_impl_data" = type { ptr, ptr, ptr }
%"class.tbb::detail::d1::enumerable_thread_specific" = type { %"class.tbb::detail::d1::ets_base", ptr, %"class.tbb::detail::d1::concurrent_vector" }
%"class.tbb::detail::d1::ets_base" = type { ptr, %"struct.std::atomic.15", %"struct.std::atomic.17" }
%"struct.std::atomic.15" = type { %"struct.std::__atomic_base.16" }
%"struct.std::__atomic_base.16" = type { ptr }
%"struct.std::atomic.17" = type { %"struct.std::__atomic_base.18" }
%"struct.std::__atomic_base.18" = type { i64 }
%"class.tbb::detail::d1::concurrent_vector" = type { %"class.tbb::detail::d1::segment_table.base", [7 x i8] }
%"class.tbb::detail::d1::segment_table.base" = type <{ ptr, [8 x i8], %"struct.std::atomic.19", [3 x %"struct.std::atomic.21"], %"struct.std::atomic.17", %"struct.std::atomic.17", %"struct.std::atomic.23" }>
%"struct.std::atomic.19" = type { %"struct.std::__atomic_base.20" }
%"struct.std::__atomic_base.20" = type { ptr }
%"struct.std::atomic.21" = type { %"struct.std::__atomic_base.22" }
%"struct.std::__atomic_base.22" = type { ptr }
%"struct.std::atomic.23" = type { %"struct.std::__atomic_base.24" }
%"struct.std::__atomic_base.24" = type { i8 }
%"class.pxrInternal_v0_24__pxrReserved__::ArThreadLocalScopedCache" = type { %"class.tbb::detail::d1::enumerable_thread_specific.25" }
%"class.tbb::detail::d1::enumerable_thread_specific.25" = type { %"class.tbb::detail::d1::ets_base", ptr, %"class.tbb::detail::d1::concurrent_vector.26" }
%"class.tbb::detail::d1::concurrent_vector.26" = type { %"class.tbb::detail::d1::segment_table.base.32", [7 x i8] }
%"class.tbb::detail::d1::segment_table.base.32" = type <{ ptr, [8 x i8], %"struct.std::atomic.28", [3 x %"struct.std::atomic.30"], %"struct.std::atomic.17", %"struct.std::atomic.17", %"struct.std::atomic.23" }>
%"struct.std::atomic.28" = type { %"struct.std::__atomic_base.29" }
%"struct.std::__atomic_base.29" = type { ptr }
%"struct.std::atomic.30" = type { %"struct.std::__atomic_base.31" }
%"struct.std::__atomic_base.31" = type { ptr }
%"class.std::__cxx11::basic_string" = type { %"struct.std::__cxx11::basic_string<char>::_Alloc_hider", i64, %union.anon }
%"struct.std::__cxx11::basic_string<char>::_Alloc_hider" = type { ptr }
%union.anon = type { i64, [8 x i8] }
%"struct.std::pair.236" = type { %"class.std::__cxx11::basic_string", %"class.std::__cxx11::basic_string" }
%"class.pxrInternal_v0_24__pxrReserved__::(anonymous namespace)::_ResolverInfo" = type <{ %"class.pxrInternal_v0_24__pxrReserved__::TfWeakPtr", %"class.pxrInternal_v0_24__pxrReserved__::TfType", %"class.std::vector.45", i8, i8, i8, [5 x i8] }>
%"class.pxrInternal_v0_24__pxrReserved__::TfWeakPtr" = type { ptr, %"class.pxrInternal_v0_24__pxrReserved__::TfRefPtr" }
%"class.pxrInternal_v0_24__pxrReserved__::TfRefPtr" = type { ptr }
%"class.pxrInternal_v0_24__pxrReserved__::TfType" = type { ptr }
%"class.pxrInternal_v0_24__pxrReserved__::(anonymous namespace)::_PluginResolver" = type { %"class.pxrInternal_v0_24__pxrReserved__::TfWeakPtr", %"class.pxrInternal_v0_24__pxrReserved__::TfType", %"struct.std::atomic.23", %"class.std::mutex", %"class.std::shared_ptr.133" }
%"class.std::mutex" = type { %"class.std::__mutex_base" }
%"class.std::__mutex_base" = type { %union.pthread_mutex_t }
%union.pthread_mutex_t = type { %struct.__pthread_mutex_s }
%struct.__pthread_mutex_s = type { i32, i32, i32, i32, i32, i16, i16, %struct.__pthread_internal_list }
%struct.__pthread_internal_list = type { ptr, ptr }
%"class.std::shared_ptr.133" = type { %"class.std::__shared_ptr.134" }
%"class.std::__shared_ptr.134" = type { ptr, %"class.std::__shared_count" }
%"class.pxrInternal_v0_24__pxrReserved__::(anonymous namespace)::_DispatchingResolver::_Resolver" = type { %"class.pxrInternal_v0_24__pxrReserved__::(anonymous namespace)::_PluginResolver", %"class.pxrInternal_v0_24__pxrReserved__::(anonymous namespace)::_ResolverInfo" }

; Function Attrs: mustprogress nounwind uwtable
define internal noundef ptr @_ZNKSt12__shared_ptrIN32pxrInternal_v0_24__pxrReserved__12_GLOBAL__N_120_DispatchingResolver9_ResolverELN9__gnu_cxx12_Lock_policyE2EE3getEv(ptr noundef nonnull align 8 dereferenceable(16) %0) #2 align 2 {
  %2 = alloca ptr, align 8
  store ptr %0, ptr %2, align 8
  %3 = load ptr, ptr %2, align 8
  %4 = getelementptr inbounds nuw %"class.std::__shared_ptr", ptr %3, i32 0, i32 0
  %5 = load ptr, ptr %4, align 8
  ret ptr %5
}

; Function Attrs: mustprogress nounwind uwtable
define internal noundef ptr @_ZNKSt19__shared_ptr_accessIN32pxrInternal_v0_24__pxrReserved__12_GLOBAL__N_120_DispatchingResolver9_ResolverELN9__gnu_cxx12_Lock_policyE2ELb0ELb0EE6_M_getEv(ptr noundef nonnull align 1 dereferenceable(1) %0) #2 align 2 {
  %2 = alloca ptr, align 8
  store ptr %0, ptr %2, align 8
  %3 = load ptr, ptr %2, align 8
  %4 = call noundef ptr @_ZNKSt12__shared_ptrIN32pxrInternal_v0_24__pxrReserved__12_GLOBAL__N_120_DispatchingResolver9_ResolverELN9__gnu_cxx12_Lock_policyE2EE3getEv(ptr noundef nonnull align 8 dereferenceable(16) %3) #6
  ret ptr %4
}

; Function Attrs: mustprogress nounwind uwtable
define internal noundef ptr @_ZNKSt19__shared_ptr_accessIN32pxrInternal_v0_24__pxrReserved__12_GLOBAL__N_120_DispatchingResolver9_ResolverELN9__gnu_cxx12_Lock_policyE2ELb0ELb0EEptEv(ptr noundef nonnull align 1 dereferenceable(1) %0) #2 align 2 {
  %2 = alloca ptr, align 8
  store ptr %0, ptr %2, align 8
  %3 = load ptr, ptr %2, align 8
  %4 = call noundef ptr @_ZNKSt19__shared_ptr_accessIN32pxrInternal_v0_24__pxrReserved__12_GLOBAL__N_120_DispatchingResolver9_ResolverELN9__gnu_cxx12_Lock_policyE2ELb0ELb0EE6_M_getEv(ptr noundef nonnull align 1 dereferenceable(1) %3) #6
  ret ptr %4
}

; Function Attrs: mustprogress nounwind uwtable
define linkonce_odr void @_ZNSt4pairINSt7__cxx1112basic_stringIcSt11char_traitsIcESaIcEEES5_ED2Ev(ptr noundef nonnull align 8 dereferenceable(64) %0) unnamed_addr #2 comdat align 2 {
  %2 = alloca ptr, align 8
  store ptr %0, ptr %2, align 8
  %3 = load ptr, ptr %2, align 8
  %4 = getelementptr inbounds nuw %"struct.std::pair.236", ptr %3, i32 0, i32 1
  call void @_ZNSt7__cxx1112basic_stringIcSt11char_traitsIcESaIcEED1Ev(ptr noundef nonnull align 8 dereferenceable(32) %4) #6
  %5 = getelementptr inbounds nuw %"struct.std::pair.236", ptr %3, i32 0, i32 0
  call void @_ZNSt7__cxx1112basic_stringIcSt11char_traitsIcESaIcEED1Ev(ptr noundef nonnull align 8 dereferenceable(32) %5) #6
  ret void
}

; Function Attrs: mustprogress uwtable
define void @_ZNK32pxrInternal_v0_24__pxrReserved__10ArResolver12GetExtensionERKNSt7__cxx1112basic_stringIcSt11char_traitsIcESaIcEEE(ptr dead_on_unwind noalias writable sret(%"class.std::__cxx11::basic_string") align 8 %0, ptr noundef nonnull align 8 dereferenceable(8) %1, ptr noundef nonnull align 8 dereferenceable(32) %2) #0 align 2 {
  %4 = alloca ptr, align 8
  %5 = alloca ptr, align 8
  %6 = alloca ptr, align 8
  store ptr %0, ptr %4, align 8
  store ptr %1, ptr %5, align 8
  store ptr %2, ptr %6, align 8
  %7 = load ptr, ptr %5, align 8
  %8 = load ptr, ptr %6, align 8
  %9 = load ptr, ptr %7, align 8
  %10 = getelementptr inbounds ptr, ptr %9, i64 14
  %11 = load ptr, ptr %10, align 8
  call void %11(ptr dead_on_unwind writable sret(%"class.std::__cxx11::basic_string") align 8 %0, ptr noundef nonnull align 8 dereferenceable(8) %7, ptr noundef nonnull align 8 dereferenceable(32) %8)
  ret void
}

; Function Attrs: mustprogress uwtable
define internal noundef nonnull align 8 dereferenceable(8) ptr @_ZNK32pxrInternal_v0_24__pxrReserved__12_GLOBAL__N_120_DispatchingResolver12_GetResolverERKNSt7__cxx1112basic_stringIcSt11char_traitsIcESaIcEEEPPKNS0_13_ResolverInfoE(ptr noundef nonnull align 8 dereferenceable(320) %0, ptr noundef nonnull align 8 dereferenceable(32) %1, ptr noundef %2) #0 align 2 {
  %4 = alloca ptr, align 8
  %5 = alloca ptr, align 8
  %6 = alloca ptr, align 8
  %7 = alloca ptr, align 8
  %8 = alloca ptr, align 8
  store ptr %0, ptr %5, align 8
  store ptr %1, ptr %6, align 8
  store ptr %2, ptr %7, align 8
  %9 = load ptr, ptr %5, align 8
  %10 = load ptr, ptr %6, align 8
  %11 = load ptr, ptr %7, align 8
  %12 = call noundef ptr @_ZNK32pxrInternal_v0_24__pxrReserved__12_GLOBAL__N_120_DispatchingResolver15_GetURIResolverERKNSt7__cxx1112basic_stringIcSt11char_traitsIcESaIcEEEPPKNS0_13_ResolverInfoE(ptr noundef nonnull align 8 dereferenceable(320) %9, ptr noundef nonnull align 8 dereferenceable(32) %10, ptr noundef %11)
  store ptr %12, ptr %8, align 8
  %13 = load ptr, ptr %8, align 8
  %14 = icmp ne ptr %13, null
  br i1 %14, label %15, label %17

15:                                               ; preds = %3
  %16 = load ptr, ptr %8, align 8
  store ptr %16, ptr %4, align 8
  br label %29

17:                                               ; preds = %3
  %18 = load ptr, ptr %7, align 8
  %19 = icmp ne ptr %18, null
  br i1 %19, label %20, label %25

20:                                               ; preds = %17
  %21 = getelementptr inbounds nuw %"class.pxrInternal_v0_24__pxrReserved__::(anonymous namespace)::_DispatchingResolver", ptr %9, i32 0, i32 1
  %22 = call noundef ptr @_ZNKSt19__shared_ptr_accessIN32pxrInternal_v0_24__pxrReserved__12_GLOBAL__N_120_DispatchingResolver9_ResolverELN9__gnu_cxx12_Lock_policyE2ELb0ELb0EEptEv(ptr noundef nonnull align 1 dereferenceable(1) %21) #6
  %23 = getelementptr inbounds nuw %"class.pxrInternal_v0_24__pxrReserved__::(anonymous namespace)::_DispatchingResolver::_Resolver", ptr %22, i32 0, i32 1
  %24 = load ptr, ptr %7, align 8
  store ptr %23, ptr %24, align 8
  br label %25

25:                                               ; preds = %20, %17
  %26 = getelementptr inbounds nuw %"class.pxrInternal_v0_24__pxrReserved__::(anonymous namespace)::_DispatchingResolver", ptr %9, i32 0, i32 1
  %27 = call noundef ptr @_ZNKSt19__shared_ptr_accessIN32pxrInternal_v0_24__pxrReserved__12_GLOBAL__N_120_DispatchingResolver9_ResolverELN9__gnu_cxx12_Lock_policyE2ELb0ELb0EEptEv(ptr noundef nonnull align 1 dereferenceable(1) %26) #6
  %28 = call noundef ptr @_ZN32pxrInternal_v0_24__pxrReserved__12_GLOBAL__N_115_PluginResolverINS_10ArResolverENS_22Ar_ResolverFactoryBaseEE3GetEv(ptr noundef nonnull align 8 dereferenceable(88) %27)
  store ptr %28, ptr %4, align 8
  br label %29

29:                                               ; preds = %25, %15
  %30 = load ptr, ptr %4, align 8
  ret ptr %30
}

; Function Attrs: mustprogress uwtable
define internal void @_ZNK32pxrInternal_v0_24__pxrReserved__12_GLOBAL__N_120_DispatchingResolver13_GetExtensionERKNSt7__cxx1112basic_stringIcSt11char_traitsIcESaIcEEE(ptr dead_on_unwind noalias writable sret(%"class.std::__cxx11::basic_string") align 8 %0, ptr noundef nonnull align 8 dereferenceable(320) %1, ptr noundef nonnull align 8 dereferenceable(32) %2) unnamed_addr #0 align 2 personality ptr @__gxx_personality_v0 {
  %4 = alloca ptr, align 8
  %5 = alloca ptr, align 8
  %6 = alloca ptr, align 8
  %7 = alloca ptr, align 8
  %8 = alloca %"struct.std::pair.236", align 8
  %9 = alloca ptr, align 8
  %10 = alloca i32, align 4
  store ptr %0, ptr %4, align 8
  store ptr %1, ptr %5, align 8
  store ptr %2, ptr %6, align 8
  %11 = load ptr, ptr %5, align 8
  %12 = load ptr, ptr %6, align 8
  %13 = call noundef nonnull align 8 dereferenceable(8) ptr @_ZNK32pxrInternal_v0_24__pxrReserved__12_GLOBAL__N_120_DispatchingResolver12_GetResolverERKNSt7__cxx1112basic_stringIcSt11char_traitsIcESaIcEEEPPKNS0_13_ResolverInfoE(ptr noundef nonnull align 8 dereferenceable(320) %11, ptr noundef nonnull align 8 dereferenceable(32) %12, ptr noundef null)
  store ptr %13, ptr %7, align 8
  %14 = load ptr, ptr %6, align 8
  %15 = call noundef zeroext i1 @_ZN32pxrInternal_v0_24__pxrReserved__23ArIsPackageRelativePathERKNSt7__cxx1112basic_stringIcSt11char_traitsIcESaIcEEE(ptr noundef nonnull align 8 dereferenceable(32) %14)
  br i1 %15, label %16, label %25

16:                                               ; preds = %3
  %17 = load ptr, ptr %6, align 8
  call void @_ZN32pxrInternal_v0_24__pxrReserved__31ArSplitPackageRelativePathInnerERKNSt7__cxx1112basic_stringIcSt11char_traitsIcESaIcEEE(ptr dead_on_unwind writable sret(%"struct.std::pair.236") align 8 %8, ptr noundef nonnull align 8 dereferenceable(32) %17)
  %18 = load ptr, ptr %7, align 8
  %19 = getelementptr inbounds nuw %"struct.std::pair.236", ptr %8, i32 0, i32 1
  invoke void @_ZNK32pxrInternal_v0_24__pxrReserved__10ArResolver12GetExtensionERKNSt7__cxx1112basic_stringIcSt11char_traitsIcESaIcEEE(ptr dead_on_unwind writable sret(%"class.std::__cxx11::basic_string") align 8 %0, ptr noundef nonnull align 8 dereferenceable(8) %18, ptr noundef nonnull align 8 dereferenceable(32) %19)
          to label %20 unwind label %21

20:                                               ; preds = %16
  call void @_ZNSt4pairINSt7__cxx1112basic_stringIcSt11char_traitsIcESaIcEEES5_ED2Ev(ptr noundef nonnull align 8 dereferenceable(64) %8) #6
  br label %28

21:                                               ; preds = %16
  %22 = landingpad { ptr, i32 }
          cleanup
  %23 = extractvalue { ptr, i32 } %22, 0
  store ptr %23, ptr %9, align 8
  %24 = extractvalue { ptr, i32 } %22, 1
  store i32 %24, ptr %10, align 4
  call void @_ZNSt4pairINSt7__cxx1112basic_stringIcSt11char_traitsIcESaIcEEES5_ED2Ev(ptr noundef nonnull align 8 dereferenceable(64) %8) #6
  br label %29

25:                                               ; preds = %3
  %26 = load ptr, ptr %7, align 8
  %27 = load ptr, ptr %6, align 8
  call void @_ZNK32pxrInternal_v0_24__pxrReserved__10ArResolver12GetExtensionERKNSt7__cxx1112basic_stringIcSt11char_traitsIcESaIcEEE(ptr dead_on_unwind writable sret(%"class.std::__cxx11::basic_string") align 8 %0, ptr noundef nonnull align 8 dereferenceable(8) %26, ptr noundef nonnull align 8 dereferenceable(32) %27)
  br label %28

28:                                               ; preds = %25, %20
  ret void

29:                                               ; preds = %21
  %30 = load ptr, ptr %9, align 8
  %31 = load i32, ptr %10, align 4
  %32 = insertvalue { ptr, i32 } poison, ptr %30, 0
  %33 = insertvalue { ptr, i32 } %32, i32 %31, 1
  resume { ptr, i32 } %33
}